target datalayout = "e-m:e-p270:32:32-p271:32:32-p272:64:64-i64:64-i128:128-f80:128-n8:16:32:64-S128"
target triple = "x86_64-pc-linux-gnu"

%struct.GCRef = type { i64 }
%struct.MRef = type { i64 }
%struct.IRType1 = type { i8 }
%union.IRIns = type { %struct.GCRef }
%struct.anon.0 = type { i32, %struct.IRType1, i8, i8, i8 }
%struct.GCcdata = type { %struct.GCRef, i8, i8, i16 }

@.str = private unnamed_addr constant [24 x i8] c"store to dead GC object\00", align 1

; Function Attrs: alwaysinline nounwind uwtable
define internal void @checklivetv(ptr noundef %0, ptr noundef %1, ptr noundef %2) #5 {
  %4 = alloca ptr, align 8
  %5 = alloca ptr, align 8
  %6 = alloca ptr, align 8
  store ptr %0, ptr %4, align 8, !tbaa !62
  store ptr %1, ptr %5, align 8, !tbaa !63
  store ptr %2, ptr %6, align 8, !tbaa !88
  ret void
}

; Function Attrs: alwaysinline nounwind uwtable
define internal void @setgcVraw(ptr noundef %0, ptr noundef %1, i32 noundef %2) #5 {
  %4 = alloca ptr, align 8
  %5 = alloca ptr, align 8
  %6 = alloca i32, align 4
  store ptr %0, ptr %4, align 8, !tbaa !63
  store ptr %1, ptr %5, align 8, !tbaa !55
  store i32 %2, ptr %6, align 4, !tbaa !32
  %7 = load ptr, ptr %5, align 8, !tbaa !55
  %8 = ptrtoint ptr %7 to i64
  %9 = load i32, ptr %6, align 4, !tbaa !32
  %10 = zext i32 %9 to i64
  %11 = shl i64 %10, 47
  %12 = or i64 %8, %11
  %13 = load ptr, ptr %4, align 8, !tbaa !63
  %14 = getelementptr inbounds nuw %struct.GCRef, ptr %13, i32 0, i32 0
  store i64 %12, ptr %14, align 8, !tbaa !35
  ret void
}

; Function Attrs: alwaysinline nounwind uwtable
define internal void @setcdataV(ptr noundef %0, ptr noundef %1, ptr noundef %2) #5 {
  %4 = alloca ptr, align 8
  %5 = alloca ptr, align 8
  %6 = alloca ptr, align 8
  store ptr %0, ptr %4, align 8, !tbaa !62
  store ptr %1, ptr %5, align 8, !tbaa !63
  store ptr %2, ptr %6, align 8, !tbaa !65
  %7 = load ptr, ptr %4, align 8, !tbaa !62
  %8 = load ptr, ptr %5, align 8, !tbaa !63
  %9 = load ptr, ptr %6, align 8, !tbaa !65
  call void @setgcV(ptr noundef %7, ptr noundef %8, ptr noundef %9, i32 noundef -11)
  ret void
}

; Function Attrs: alwaysinline nounwind uwtable
define internal ptr @lj_cdata_new_(ptr noundef %0, i32 noundef %1, i32 noundef %2) #5 {
  %4 = alloca ptr, align 8
  %5 = alloca i32, align 4
  %6 = alloca i32, align 4
  %7 = alloca ptr, align 8
  store ptr %0, ptr %4, align 8, !tbaa !62
  store i32 %1, ptr %5, align 4, !tbaa !32
  store i32 %2, ptr %6, align 4, !tbaa !32
  call void @llvm.lifetime.start.p0(i64 8, ptr %7) #10
  %8 = load ptr, ptr %4, align 8, !tbaa !62
  %9 = load i32, ptr %6, align 4, !tbaa !32
  %10 = zext i32 %9 to i64
  %11 = add i64 16, %10
  %12 = call ptr @lj_mem_newgco(ptr noundef %8, i64 noundef %11)
  store ptr %12, ptr %7, align 8, !tbaa !65
  %13 = load ptr, ptr %7, align 8, !tbaa !65
  %14 = getelementptr inbounds nuw %struct.GCcdata, ptr %13, i32 0, i32 2
  store i8 10, ptr %14, align 1, !tbaa !67
  %15 = load i32, ptr %5, align 4, !tbaa !32
  %16 = trunc i32 %15 to i16
  %17 = load ptr, ptr %7, align 8, !tbaa !65
  %18 = getelementptr inbounds nuw %struct.GCcdata, ptr %17, i32 0, i32 3
  store i16 %16, ptr %18, align 2, !tbaa !69
  %19 = load ptr, ptr %7, align 8, !tbaa !65
  call void @llvm.lifetime.end.p0(i64 8, ptr %7) #10
  ret ptr %19
}

; Function Attrs: alwaysinline nounwind uwtable
define internal void @setgcV(ptr noundef %0, ptr noundef %1, ptr noundef %2, i32 noundef %3) #5 {
  %5 = alloca ptr, align 8
  %6 = alloca ptr, align 8
  %7 = alloca ptr, align 8
  %8 = alloca i32, align 4
  store ptr %0, ptr %5, align 8, !tbaa !62
  store ptr %1, ptr %6, align 8, !tbaa !63
  store ptr %2, ptr %7, align 8, !tbaa !55
  store i32 %3, ptr %8, align 4, !tbaa !32
  %9 = load ptr, ptr %6, align 8, !tbaa !63
  %10 = load ptr, ptr %7, align 8, !tbaa !55
  %11 = load i32, ptr %8, align 4, !tbaa !32
  call void @setgcVraw(ptr noundef %9, ptr noundef %10, i32 noundef %11)
  %12 = load ptr, ptr %5, align 8, !tbaa !62
  %13 = load ptr, ptr %6, align 8, !tbaa !63
  call void @checklivetv(ptr noundef %12, ptr noundef %13, ptr noundef @.str)
  ret void
}

; Function Attrs: alwaysinline nounwind uwtable
define internal void @setintV(ptr noundef %0, i32 noundef %1) #5 {
  %3 = alloca ptr, align 8
  %4 = alloca i32, align 4
  store ptr %0, ptr %3, align 8, !tbaa !63
  store i32 %1, ptr %4, align 4, !tbaa !32
  %5 = load i32, ptr %4, align 4, !tbaa !32
  %6 = sitofp i32 %5 to double
  %7 = load ptr, ptr %3, align 8, !tbaa !63
  store double %6, ptr %7, align 8, !tbaa !35
  ret void
}

; Function Attrs: alwaysinline nounwind uwtable
define internal i32 @irt_toitype_(i32 noundef %0) #5 {
  %2 = alloca i32, align 4
  store i32 %0, ptr %2, align 4, !tbaa !32
  %3 = load i32, ptr %2, align 4, !tbaa !32
  %4 = xor i32 %3, -1
  ret i32 %4
}

; Function Attrs: nounwind uwtable
define hidden void @lj_ir_kvalue(ptr noundef %0, ptr noundef %1, ptr noundef %2) #3 {
  %4 = alloca ptr, align 8
  %5 = alloca ptr, align 8
  %6 = alloca ptr, align 8
  %7 = alloca ptr, align 8
  store ptr %0, ptr %4, align 8, !tbaa !62
  store ptr %1, ptr %5, align 8, !tbaa !63
  store ptr %2, ptr %6, align 8, !tbaa !30
  %8 = load ptr, ptr %6, align 8, !tbaa !30
  %9 = getelementptr inbounds nuw %struct.anon.0, ptr %8, i32 0, i32 2
  %10 = load i8, ptr %9, align 1, !tbaa !35
  %11 = zext i8 %10 to i32
  switch i32 %11, label %71 [
    i32 22, label %12
    i32 23, label %25
    i32 24, label %29
    i32 25, label %44
    i32 26, label %44
    i32 27, label %53
    i32 28, label %55
    i32 29, label %60
  ]

12:                                               ; preds = %3
  %13 = load ptr, ptr %6, align 8, !tbaa !30
  %14 = getelementptr inbounds nuw %struct.anon.0, ptr %13, i32 0, i32 1
  %15 = getelementptr inbounds nuw %struct.IRType1, ptr %14, i32 0, i32 0
  %16 = load i8, ptr %15, align 4, !tbaa !35
  %17 = zext i8 %16 to i32
  %18 = and i32 %17, 31
  %19 = call i32 @irt_toitype_(i32 noundef %18)
  %20 = xor i32 %19, -1
  %21 = zext i32 %20 to i64
  %22 = shl i64 %21, 47
  %23 = xor i64 %22, -1
  %24 = load ptr, ptr %5, align 8, !tbaa !63
  store i64 %23, ptr %24, align 8, !tbaa !35
  br label %72

25:                                               ; preds = %3
  %26 = load ptr, ptr %5, align 8, !tbaa !63
  %27 = load ptr, ptr %6, align 8, !tbaa !30
  %28 = load i32, ptr %27, align 8, !tbaa !35
  call void @setintV(ptr noundef %26, i32 noundef %28)
  br label %72

29:                                               ; preds = %3
  %30 = load ptr, ptr %4, align 8, !tbaa !62
  %31 = load ptr, ptr %5, align 8, !tbaa !63
  %32 = load ptr, ptr %6, align 8, !tbaa !30
  %33 = getelementptr inbounds %union.IRIns, ptr %32, i64 1
  %34 = getelementptr inbounds nuw %struct.GCRef, ptr %33, i32 0, i32 0
  %35 = load i64, ptr %34, align 8, !tbaa !35
  %36 = inttoptr i64 %35 to ptr
  %37 = load ptr, ptr %6, align 8, !tbaa !30
  %38 = getelementptr inbounds nuw %struct.anon.0, ptr %37, i32 0, i32 1
  %39 = getelementptr inbounds nuw %struct.IRType1, ptr %38, i32 0, i32 0
  %40 = load i8, ptr %39, align 4, !tbaa !35
  %41 = zext i8 %40 to i32
  %42 = and i32 %41, 31
  %43 = call i32 @irt_toitype_(i32 noundef %42)
  call void @setgcV(ptr noundef %30, ptr noundef %31, ptr noundef %36, i32 noundef %43)
  br label %72

44:                                               ; preds = %3, %3
  %45 = load ptr, ptr %6, align 8, !tbaa !30
  %46 = getelementptr inbounds %union.IRIns, ptr %45, i64 1
  %47 = getelementptr inbounds nuw %struct.MRef, ptr %46, i32 0, i32 0
  %48 = load i64, ptr %47, align 8, !tbaa !35
  %49 = inttoptr i64 %48 to ptr
  %50 = ptrtoint ptr %49 to i64
  %51 = uitofp i64 %50 to double
  %52 = load ptr, ptr %5, align 8, !tbaa !63
  store double %51, ptr %52, align 8, !tbaa !35
  br label %72

53:                                               ; preds = %3
  %54 = load ptr, ptr %5, align 8, !tbaa !63
  call void @setintV(ptr noundef %54, i32 noundef 0)
  br label %72

55:                                               ; preds = %3
  %56 = load ptr, ptr %6, align 8, !tbaa !30
  %57 = getelementptr inbounds %union.IRIns, ptr %56, i64 1
  %58 = load double, ptr %57, align 8, !tbaa !35
  %59 = load ptr, ptr %5, align 8, !tbaa !63
  store double %58, ptr %59, align 8, !tbaa !35
  br label %72

60:                                               ; preds = %3
  call void @llvm.lifetime.start.p0(i64 8, ptr %7) #10
  %61 = load ptr, ptr %4, align 8, !tbaa !62
  %62 = call ptr @lj_cdata_new_(ptr noundef %61, i32 noundef 11, i32 noundef 8)
  store ptr %62, ptr %7, align 8, !tbaa !65
  %63 = load ptr, ptr %6, align 8, !tbaa !30
  %64 = getelementptr inbounds %union.IRIns, ptr %63, i64 1
  %65 = load i64, ptr %64, align 8, !tbaa !35
  %66 = load ptr, ptr %7, align 8, !tbaa !65
  %67 = getelementptr inbounds %struct.GCcdata, ptr %66, i64 1
  store i64 %65, ptr %67, align 8, !tbaa !48
  %68 = load ptr, ptr %4, align 8, !tbaa !62
  %69 = load ptr, ptr %5, align 8, !tbaa !63
  %70 = load ptr, ptr %7, align 8, !tbaa !65
  call void @setcdataV(ptr noundef %68, ptr noundef %69, ptr noundef %70)
  call void @llvm.lifetime.end.p0(i64 8, ptr %7) #10
  br label %72

71:                                               ; preds = %3
  br label %72

72:                                               ; preds = %71, %60, %55, %53, %44, %29, %25, %12
  ret void
}