; Function Attrs: nounwind uwtable
define hidden void @lj_ir_kvalue(ptr noundef %0, ptr noundef writeonly captures(none) %1, ptr noundef readonly captures(none) %2) local_unnamed_addr #6 {
  %4 = getelementptr inbounds nuw i8, ptr %2, i64 5
  %5 = load i8, ptr %4, align 1, !tbaa !33
  switch i8 %5, label %43 [
    i8 22, label %6
    i8 23, label %13
    i8 24, label %16
    i8 25, label %26
    i8 26, label %26
    i8 27, label %30
    i8 28, label %31
    i8 29, label %34
  ]

6:                                                ; preds = %3
  %7 = getelementptr inbounds nuw i8, ptr %2, i64 4
  %8 = load i8, ptr %7, align 4, !tbaa !33
  %9 = and i8 %8, 31
  %10 = zext nneg i8 %9 to i64
  %11 = shl nuw nsw i64 %10, 47
  %12 = xor i64 %11, -1
  store i64 %12, ptr %1, align 8, !tbaa !33
  br label %43

13:                                               ; preds = %3
  %14 = load i32, ptr %2, align 8, !tbaa !33
  %15 = sitofp i32 %14 to double
  store double %15, ptr %1, align 8, !tbaa !33
  br label %43

16:                                               ; preds = %3
  %17 = getelementptr inbounds nuw i8, ptr %2, i64 8
  %18 = load i64, ptr %17, align 8, !tbaa !33
  %19 = getelementptr inbounds nuw i8, ptr %2, i64 4
  %20 = load i8, ptr %19, align 4, !tbaa !33
  %21 = and i8 %20, 31
  %22 = xor i8 %21, -1
  %23 = sext i8 %22 to i64
  %24 = shl nsw i64 %23, 47
  %25 = or i64 %24, %18
  store i64 %25, ptr %1, align 8, !tbaa !33
  br label %43

26:                                               ; preds = %3, %3
  %27 = getelementptr inbounds nuw i8, ptr %2, i64 8
  %28 = load i64, ptr %27, align 8, !tbaa !33
  %29 = uitofp i64 %28 to double
  store double %29, ptr %1, align 8, !tbaa !33
  br label %43

30:                                               ; preds = %3
  store double 0.000000e+00, ptr %1, align 8, !tbaa !33
  br label %43

31:                                               ; preds = %3
  %32 = getelementptr inbounds nuw i8, ptr %2, i64 8
  %33 = load double, ptr %32, align 8, !tbaa !33
  store double %33, ptr %1, align 8, !tbaa !33
  br label %43

34:                                               ; preds = %3
  %35 = tail call ptr @lj_mem_newgco(ptr noundef %0, i64 noundef 24) #13
  %36 = getelementptr inbounds nuw i8, ptr %35, i64 9
  store i8 10, ptr %36, align 1, !tbaa !50
  %37 = getelementptr inbounds nuw i8, ptr %35, i64 10
  store i16 11, ptr %37, align 2, !tbaa !52
  %38 = getelementptr inbounds nuw i8, ptr %2, i64 8
  %39 = load i64, ptr %38, align 8, !tbaa !33
  %40 = getelementptr inbounds nuw i8, ptr %35, i64 16
  store i64 %39, ptr %40, align 8, !tbaa !53
  %41 = ptrtoint ptr %35 to i64
  %42 = or i64 %41, -1548112371908608
  store i64 %42, ptr %1, align 8, !tbaa !33
  br label %43

43:                                               ; preds = %3, %34, %31, %30, %26, %16, %13, %6
  ret void
}